; Function Attrs: nounwind uwtable
define void @Gia_ManCollectNodes_rec(ptr noundef %0, i32 noundef %1, ptr noundef %2) local_unnamed_addr #0 {
  %4 = getelementptr i8, ptr %0, i64 176
  %.val16 = load i32, ptr %4, align 8, !tbaa !63
  %5 = getelementptr i8, ptr %0, i64 616
  %.val17 = load ptr, ptr %5, align 8, !tbaa !64
  %6 = sext i32 %1 to i64
  %7 = getelementptr inbounds i32, ptr %.val17, i64 %6
  %8 = load i32, ptr %7, align 4, !tbaa !31
  %.not.i = icmp eq i32 %8, %.val16
  br i1 %.not.i, label %Gia_ObjUpdateTravIdCurrentId.exit, label %9

9:                                                ; preds = %3
  store i32 %.val16, ptr %7, align 4, !tbaa !31
  %10 = getelementptr i8, ptr %0, i64 32
  %.val = load ptr, ptr %10, align 8, !tbaa !57
  %11 = getelementptr inbounds %struct.Gia_Obj_t_, ptr %.val, i64 %6
  %.val18 = load i64, ptr %11, align 4
  %12 = and i64 %.val18, 2684354559
  %narrow.i = icmp eq i64 %12, 2684354559
  %13 = icmp eq i32 %1, 0
  %or.cond = or i1 %13, %narrow.i
  br i1 %or.cond, label %Gia_ObjUpdateTravIdCurrentId.exit, label %14

14:                                               ; preds = %9
  %15 = trunc i64 %.val18 to i32
  %16 = and i32 %15, 536870911
  %17 = sub nsw i32 %1, %16
  tail call void @Gia_ManCollectNodes_rec(ptr noundef nonnull %0, i32 noundef %17, ptr noundef %2)
  %.val20 = load i64, ptr %11, align 4
  %18 = lshr i64 %.val20, 32
  %19 = trunc nuw i64 %18 to i32
  %20 = and i32 %19, 536870911
  %21 = sub nsw i32 %1, %20
  tail call void @Gia_ManCollectNodes_rec(ptr noundef nonnull %0, i32 noundef %21, ptr noundef %2)
  %22 = getelementptr inbounds nuw i8, ptr %2, i64 4
  %23 = load i32, ptr %22, align 4, !tbaa !29
  %24 = load i32, ptr %2, align 8, !tbaa !39
  %25 = icmp eq i32 %23, %24
  br i1 %25, label %26, label %.Vec_IntGrow.exit10_crit_edge.i

.Vec_IntGrow.exit10_crit_edge.i:                  ; preds = %14
  %.phi.trans.insert.i = getelementptr inbounds nuw i8, ptr %2, i64 8
  %.pre.i = load ptr, ptr %.phi.trans.insert.i, align 8, !tbaa !40
  br label %Vec_IntPush.exit

26:                                               ; preds = %14
  %27 = icmp slt i32 %23, 16
  br i1 %27, label %28, label %36

28:                                               ; preds = %26
  %29 = getelementptr inbounds nuw i8, ptr %2, i64 8
  %30 = load ptr, ptr %29, align 8, !tbaa !40
  %.not9.i.i = icmp eq ptr %30, null
  br i1 %.not9.i.i, label %33, label %31

31:                                               ; preds = %28
  %32 = tail call dereferenceable_or_null(64) ptr @realloc(ptr noundef nonnull %30, i64 noundef 64) #21
  br label %Vec_IntGrow.exit.i

33:                                               ; preds = %28
  %34 = tail call noalias dereferenceable_or_null(64) ptr @malloc(i64 noundef 64) #20
  br label %Vec_IntGrow.exit.i

Vec_IntGrow.exit.i:                               ; preds = %33, %31
  %35 = phi ptr [ %32, %31 ], [ %34, %33 ]
  store ptr %35, ptr %29, align 8, !tbaa !40
  store i32 16, ptr %2, align 8, !tbaa !39
  br label %Vec_IntPush.exit

36:                                               ; preds = %26
  %37 = shl nuw nsw i32 %23, 1
  %38 = getelementptr inbounds nuw i8, ptr %2, i64 8
  %39 = load ptr, ptr %38, align 8, !tbaa !40
  %.not9.i9.i = icmp eq ptr %39, null
  %40 = zext nneg i32 %37 to i64
  %41 = shl nuw nsw i64 %40, 2
  br i1 %.not9.i9.i, label %44, label %42

42:                                               ; preds = %36
  %43 = tail call ptr @realloc(ptr noundef nonnull %39, i64 noundef %41) #21
  br label %46

44:                                               ; preds = %36
  %45 = tail call noalias ptr @malloc(i64 noundef %41) #20
  br label %46

46:                                               ; preds = %44, %42
  %47 = phi ptr [ %43, %42 ], [ %45, %44 ]
  store ptr %47, ptr %38, align 8, !tbaa !40
  store i32 %37, ptr %2, align 8, !tbaa !39
  br label %Vec_IntPush.exit

Vec_IntPush.exit:                                 ; preds = %.Vec_IntGrow.exit10_crit_edge.i, %Vec_IntGrow.exit.i, %46
  %48 = phi ptr [ %.pre.i, %.Vec_IntGrow.exit10_crit_edge.i ], [ %47, %46 ], [ %35, %Vec_IntGrow.exit.i ]
  %49 = load i32, ptr %22, align 4, !tbaa !29
  %50 = add nsw i32 %49, 1
  store i32 %50, ptr %22, align 4, !tbaa !29
  %51 = sext i32 %49 to i64
  %52 = getelementptr inbounds i32, ptr %48, i64 %51
  store i32 %1, ptr %52, align 4, !tbaa !31
  br label %Gia_ObjUpdateTravIdCurrentId.exit

Gia_ObjUpdateTravIdCurrentId.exit:                ; preds = %3, %9, %Vec_IntPush.exit
  ret void
}